target datalayout = "e-m:e-p270:32:32-p271:32:32-p272:64:64-i64:64-i128:128-f80:128-n8:16:32:64-S128"
target triple = "x86_64-pc-linux-gnu"

@whereToSendOutput = dso_local global i32 1, align 4
@InterruptPending = external global i32, align 4
@ProcDiePending = external global i32, align 4
@MyLatch = external global ptr, align 8
@InterruptHoldoffCount = external global i32, align 4
@CritSectionCount = external global i32, align 4

; Function Attrs: nounwind uwtable
define dso_local void @ProcessClientWriteInterrupt(i1 noundef zeroext %0) #0 {
  %2 = alloca i8, align 1
  %3 = alloca i32, align 4
  %4 = zext i1 %0 to i8
  store i8 %4, ptr %2, align 1
  call void @llvm.lifetime.start.p0(i64 4, ptr %3) #16
  %5 = call ptr @__errno_location() #17
  %6 = load i32, ptr %5, align 4
  store i32 %6, ptr %3, align 4
  %7 = load volatile i32, ptr @ProcDiePending, align 4
  %8 = icmp ne i32 %7, 0
  br i1 %8, label %9, label %38

9:                                                ; preds = %1
  %10 = load i8, ptr %2, align 1, !range !4, !noundef !5
  %11 = trunc i8 %10 to i1
  br i1 %11, label %12, label %35

12:                                               ; preds = %9
  %13 = load volatile i32, ptr @InterruptHoldoffCount, align 4
  %14 = icmp eq i32 %13, 0
  br i1 %14, label %15, label %34

15:                                               ; preds = %12
  %16 = load volatile i32, ptr @CritSectionCount, align 4
  %17 = icmp eq i32 %16, 0
  br i1 %17, label %18, label %34

18:                                               ; preds = %15
  %19 = load i32, ptr @whereToSendOutput, align 4
  %20 = icmp eq i32 %19, 2
  br i1 %20, label %21, label %22

21:                                               ; preds = %18
  store i32 0, ptr @whereToSendOutput, align 4
  br label %22

22:                                               ; preds = %21, %18
  br label %23

23:                                               ; preds = %22
  %24 = load volatile i32, ptr @InterruptPending, align 4
  %25 = icmp ne i32 %24, 0
  %26 = zext i1 %25 to i32
  %27 = sext i32 %26 to i64
  %28 = call i64 @llvm.expect.i64(i64 %27, i64 0)
  %29 = icmp ne i64 %28, 0
  br i1 %29, label %30, label %31

30:                                               ; preds = %23
  call void @ProcessInterrupts()
  br label %31

31:                                               ; preds = %30, %23
  br label %32

32:                                               ; preds = %31
  br label %33

33:                                               ; preds = %32
  br label %34

34:                                               ; preds = %33, %15, %12
  br label %37

35:                                               ; preds = %9
  %36 = load ptr, ptr @MyLatch, align 8
  call void @SetLatch(ptr noundef %36)
  br label %37

37:                                               ; preds = %35, %34
  br label %38

38:                                               ; preds = %37, %1
  %39 = load i32, ptr %3, align 4
  %40 = call ptr @__errno_location() #17
  store i32 %39, ptr %40, align 4
  call void @llvm.lifetime.end.p0(i64 4, ptr %3) #16
  ret void
}