; Function Attrs: nounwind uwtable
define dso_local void @ProcessClientWriteInterrupt(i1 noundef zeroext %0) local_unnamed_addr #0 {
  %2 = tail call ptr @__errno_location() #21
  %3 = load i32, ptr %2, align 4
  %4 = load volatile i32, ptr @ProcDiePending, align 4
  %.not = icmp eq i32 %4, 0
  br i1 %.not, label %21, label %5

5:                                                ; preds = %1
  br i1 %0, label %6, label %19

6:                                                ; preds = %5
  %7 = load volatile i32, ptr @InterruptHoldoffCount, align 4
  %8 = icmp eq i32 %7, 0
  br i1 %8, label %9, label %21

9:                                                ; preds = %6
  %10 = load volatile i32, ptr @CritSectionCount, align 4
  %11 = icmp eq i32 %10, 0
  br i1 %11, label %12, label %21

12:                                               ; preds = %9
  %13 = load i32, ptr @whereToSendOutput, align 4
  %14 = icmp eq i32 %13, 2
  br i1 %14, label %15, label %16

15:                                               ; preds = %12
  store i32 0, ptr @whereToSendOutput, align 4
  br label %16

16:                                               ; preds = %12, %15
  %17 = load volatile i32, ptr @InterruptPending, align 4
  %.not2 = icmp eq i32 %17, 0
  br i1 %.not2, label %21, label %18, !prof !4

18:                                               ; preds = %16
  tail call void @ProcessInterrupts()
  br label %21

19:                                               ; preds = %5
  %20 = load ptr, ptr @MyLatch, align 8
  tail call void @SetLatch(ptr noundef %20) #22
  br label %21

21:                                               ; preds = %19, %16, %18, %9, %6, %1
  store i32 %3, ptr %2, align 4
  ret void
}